; Function Attrs: mustprogress uwtable
define hidden noundef zeroext i1 @_ZNK3nla4core8has_realERKNS_5monicE(ptr noundef nonnull readonly align 8 captures(none) dereferenceable(4736) %0, ptr noundef nonnull readonly align 8 captures(none) dereferenceable(34) %1) local_unnamed_addr #4 align 2 {
  %3 = getelementptr inbounds nuw i8, ptr %1, i64 8
  %4 = load ptr, ptr %3, align 8, !tbaa !188
  %5 = icmp eq ptr %4, null
  br i1 %5, label %._crit_edge, label %_ZNK6vectorIjLb0EjE3endEv.exit

_ZNK6vectorIjLb0EjE3endEv.exit:                   ; preds = %2
  %6 = getelementptr inbounds i8, ptr %4, i64 -4
  %7 = load i32, ptr %6, align 4, !tbaa !249
  %8 = zext i32 %7 to i64
  %9 = getelementptr inbounds nuw i32, ptr %4, i64 %8
  %.not14.not = icmp eq i32 %7, 0
  br i1 %.not14.not, label %._crit_edge, label %.lr.ph

.lr.ph:                                           ; preds = %_ZNK6vectorIjLb0EjE3endEv.exit
  %10 = getelementptr inbounds nuw i8, ptr %0, i64 192
  br label %11

11:                                               ; preds = %11, %.lr.ph
  %.01315 = phi ptr [ %4, %.lr.ph ], [ %15, %11 ]
  %12 = load i32, ptr %.01315, align 4, !tbaa !249
  %13 = load ptr, ptr %10, align 8, !tbaa !195
  %14 = tail call noundef zeroext i1 @_ZNK2lp10lar_solver13column_is_intEj(ptr noundef nonnull align 8 dereferenceable(2128) %13, i32 noundef %12)
  %15 = getelementptr inbounds nuw i8, ptr %.01315, i64 4
  %.not.not = icmp ne ptr %15, %9
  %or.cond.not = select i1 %14, i1 %.not.not, i1 false
  br i1 %or.cond.not, label %11, label %._crit_edge.loopexit

._crit_edge.loopexit:                             ; preds = %11
  %.not.lcssa.ph = xor i1 %14, true
  br label %._crit_edge

._crit_edge:                                      ; preds = %2, %._crit_edge.loopexit, %_ZNK6vectorIjLb0EjE3endEv.exit
  %.not.lcssa = phi i1 [ false, %_ZNK6vectorIjLb0EjE3endEv.exit ], [ %.not.lcssa.ph, %._crit_edge.loopexit ], [ false, %2 ]
  ret i1 %.not.lcssa
}